; Function Attrs: nounwind uwtable
define void @lv_matrix_multiply(ptr noundef %0, ptr nocapture noundef readonly %1) local_unnamed_addr #1 {
  %3 = alloca %struct._lv_matrix_t, align 4
  call void @llvm.lifetime.start.p0(i64 36, ptr nonnull %3) #9
  %4 = getelementptr inbounds i8, ptr %1, i64 12
  %5 = getelementptr inbounds i8, ptr %1, i64 24
  br label %.preheader

.preheader:                                       ; preds = %2, %14
  %indvars.iv22 = phi i64 [ 0, %2 ], [ %indvars.iv.next23, %14 ]
  %6 = getelementptr inbounds [3 x [3 x float]], ptr %0, i64 0, i64 %indvars.iv22
  %7 = load float, ptr %6, align 4, !tbaa !3
  %8 = getelementptr inbounds i8, ptr %6, i64 4
  %9 = load float, ptr %8, align 4, !tbaa !3
  %10 = getelementptr inbounds i8, ptr %6, i64 8
  %11 = load float, ptr %10, align 4, !tbaa !3
  br label %15

12:                                               ; preds = %14
  %13 = call ptr @lv_memcpy(ptr noundef %0, ptr noundef nonnull %3, i64 noundef 36) #9
  call void @llvm.lifetime.end.p0(i64 36, ptr nonnull %3) #9
  ret void

14:                                               ; preds = %15
  %indvars.iv.next23 = add nuw nsw i64 %indvars.iv22, 1
  %exitcond25.not = icmp eq i64 %indvars.iv.next23, 3
  br i1 %exitcond25.not, label %12, label %.preheader, !llvm.loop !7

15:                                               ; preds = %.preheader, %15
  %indvars.iv = phi i64 [ 0, %.preheader ], [ %indvars.iv.next, %15 ]
  %16 = getelementptr inbounds [3 x float], ptr %1, i64 0, i64 %indvars.iv
  %17 = load float, ptr %16, align 4, !tbaa !3
  %18 = getelementptr inbounds [3 x float], ptr %4, i64 0, i64 %indvars.iv
  %19 = load float, ptr %18, align 4, !tbaa !3
  %20 = fmul float %9, %19
  %21 = tail call float @llvm.fmuladd.f32(float %7, float %17, float %20)
  %22 = getelementptr inbounds [3 x float], ptr %5, i64 0, i64 %indvars.iv
  %23 = load float, ptr %22, align 4, !tbaa !3
  %24 = tail call float @llvm.fmuladd.f32(float %11, float %23, float %21)
  %25 = getelementptr inbounds [3 x [3 x float]], ptr %3, i64 0, i64 %indvars.iv22, i64 %indvars.iv
  store float %24, ptr %25, align 4, !tbaa !3
  %indvars.iv.next = add nuw nsw i64 %indvars.iv, 1
  %exitcond.not = icmp eq i64 %indvars.iv.next, 3
  br i1 %exitcond.not, label %14, label %15, !llvm.loop !9
}